
a.out:     file format elf64-littleriscv


Disassembly of section .plt:

0000000000010300 <_PROCEDURE_LINKAGE_TABLE_>:
   10300:	00002397          	auipc	t2,0x2
   10304:	41c30333          	sub	t1,t1,t3
   10308:	d003be03          	ld	t3,-768(t2) # 12000 <__TMC_END__>
   1030c:	fd430313          	addi	t1,t1,-44
   10310:	d0038293          	addi	t0,t2,-768
   10314:	00135313          	srli	t1,t1,0x1
   10318:	0082b283          	ld	t0,8(t0)
   1031c:	000e0067          	jr	t3

0000000000010320 <__libc_start_main@plt>:
   10320:	00002e17          	auipc	t3,0x2
   10324:	cf0e3e03          	ld	t3,-784(t3) # 12010 <__libc_start_main@GLIBC_2.26>
   10328:	000e0367          	jalr	t1,t3
   1032c:	00000013          	nop

Disassembly of section .text:

0000000000010330 <_start>:
   10330:	02c000ef          	jal	ra,1035c <_start+0x2c>
   10334:	87aa                	mv	a5,a0
   10336:	00000517          	auipc	a0,0x0
   1033a:	0a650513          	addi	a0,a0,166 # 103dc <main>
   1033e:	6582                	ld	a1,0(sp)
   10340:	0030                	addi	a2,sp,8
   10342:	ff017113          	andi	sp,sp,-16
   10346:	00000697          	auipc	a3,0x0
   1034a:	0da68693          	addi	a3,a3,218 # 10420 <__libc_csu_init>
   1034e:	00000717          	auipc	a4,0x0
   10352:	12a70713          	addi	a4,a4,298 # 10478 <__libc_csu_fini>
   10356:	880a                	mv	a6,sp
   10358:	fc9ff06f          	j	10320 <__libc_start_main@plt>
   1035c:	00002197          	auipc	gp,0x2
   10360:	4c418193          	addi	gp,gp,1220 # 12820 <__global_pointer$>
   10364:	8082                	ret

0000000000010366 <deregister_tm_clones>:
   10366:	6549                	lui	a0,0x12
   10368:	6749                	lui	a4,0x12
   1036a:	00050793          	mv	a5,a0
   1036e:	00070713          	mv	a4,a4
   10372:	00f70b63          	beq	a4,a5,10388 <deregister_tm_clones+0x22>
   10376:	00000337          	lui	t1,0x0
   1037a:	00030313          	mv	t1,t1
   1037e:	00030563          	beqz	t1,10388 <deregister_tm_clones+0x22>
   10382:	00050513          	mv	a0,a0
   10386:	8302                	jr	t1
   10388:	8082                	ret

000000000001038a <register_tm_clones>:
   1038a:	6549                	lui	a0,0x12
   1038c:	00050793          	mv	a5,a0
   10390:	6749                	lui	a4,0x12
   10392:	00070593          	mv	a1,a4
   10396:	8d9d                	sub	a1,a1,a5
   10398:	858d                	srai	a1,a1,0x3
   1039a:	03f5d793          	srli	a5,a1,0x3f
   1039e:	95be                	add	a1,a1,a5
   103a0:	8585                	srai	a1,a1,0x1
   103a2:	c991                	beqz	a1,103b6 <register_tm_clones+0x2c>
   103a4:	00000337          	lui	t1,0x0
   103a8:	00030313          	mv	t1,t1
   103ac:	00030563          	beqz	t1,103b6 <register_tm_clones+0x2c>
   103b0:	00050513          	mv	a0,a0
   103b4:	8302                	jr	t1
   103b6:	8082                	ret

00000000000103b8 <__do_global_dtors_aux>:
   103b8:	1141                	addi	sp,sp,-16
   103ba:	e022                	sd	s0,0(sp)
   103bc:	6449                	lui	s0,0x12
   103be:	03044783          	lbu	a5,48(s0) # 12030 <_edata>
   103c2:	e406                	sd	ra,8(sp)
   103c4:	e791                	bnez	a5,103d0 <__do_global_dtors_aux+0x18>
   103c6:	fa1ff0ef          	jal	ra,10366 <deregister_tm_clones>
   103ca:	4785                	li	a5,1
   103cc:	02f40823          	sb	a5,48(s0)
   103d0:	60a2                	ld	ra,8(sp)
   103d2:	6402                	ld	s0,0(sp)
   103d4:	0141                	addi	sp,sp,16
   103d6:	8082                	ret

00000000000103d8 <frame_dummy>:
   103d8:	fb3ff06f          	j	1038a <register_tm_clones>

00000000000103dc <main>:
   103dc:	7159                	addi	sp,sp,-112
   103de:	f4a2                	sd	s0,104(sp)
   103e0:	1880                	addi	s0,sp,112
   103e2:	fe042623          	sw	zero,-20(s0)
   103e6:	a005                	j	10406 <main+0x2a>
   103e8:	fec42783          	lw	a5,-20(s0)
   103ec:	078a                	slli	a5,a5,0x2
   103ee:	ff040713          	addi	a4,s0,-16
   103f2:	97ba                	add	a5,a5,a4
   103f4:	fec42703          	lw	a4,-20(s0)
   103f8:	fae7a423          	sw	a4,-88(a5)
   103fc:	fec42783          	lw	a5,-20(s0)
   10400:	2785                	addiw	a5,a5,1
   10402:	fef42623          	sw	a5,-20(s0)
   10406:	fec42783          	lw	a5,-20(s0)
   1040a:	0007871b          	sext.w	a4,a5
   1040e:	47cd                	li	a5,19
   10410:	fce7dce3          	ble	a4,a5,103e8 <main+0xc>
   10414:	fec42783          	lw	a5,-20(s0)
   10418:	853e                	mv	a0,a5
   1041a:	7426                	ld	s0,104(sp)
   1041c:	6165                	addi	sp,sp,112
   1041e:	8082                	ret

0000000000010420 <__libc_csu_init>:
   10420:	7139                	addi	sp,sp,-64
   10422:	f822                	sd	s0,48(sp)
   10424:	f04a                	sd	s2,32(sp)
   10426:	00002417          	auipc	s0,0x2
   1042a:	9fa40413          	addi	s0,s0,-1542 # 11e20 <__frame_dummy_init_array_entry>
   1042e:	00002917          	auipc	s2,0x2
   10432:	9fa90913          	addi	s2,s2,-1542 # 11e28 <__init_array_end>
   10436:	40890933          	sub	s2,s2,s0
   1043a:	fc06                	sd	ra,56(sp)
   1043c:	f426                	sd	s1,40(sp)
   1043e:	ec4e                	sd	s3,24(sp)
   10440:	e852                	sd	s4,16(sp)
   10442:	e456                	sd	s5,8(sp)
   10444:	40395913          	srai	s2,s2,0x3
   10448:	00090f63          	beqz	s2,10466 <__libc_csu_init+0x46>
   1044c:	8ab2                	mv	s5,a2
   1044e:	8a2e                	mv	s4,a1
   10450:	89aa                	mv	s3,a0
   10452:	4481                	li	s1,0
   10454:	601c                	ld	a5,0(s0)
   10456:	8656                	mv	a2,s5
   10458:	85d2                	mv	a1,s4
   1045a:	854e                	mv	a0,s3
   1045c:	0485                	addi	s1,s1,1
   1045e:	9782                	jalr	a5
   10460:	0421                	addi	s0,s0,8
   10462:	fe9919e3          	bne	s2,s1,10454 <__libc_csu_init+0x34>
   10466:	70e2                	ld	ra,56(sp)
   10468:	7442                	ld	s0,48(sp)
   1046a:	74a2                	ld	s1,40(sp)
   1046c:	7902                	ld	s2,32(sp)
   1046e:	69e2                	ld	s3,24(sp)
   10470:	6a42                	ld	s4,16(sp)
   10472:	6aa2                	ld	s5,8(sp)
   10474:	6121                	addi	sp,sp,64
   10476:	8082                	ret

0000000000010478 <__libc_csu_fini>:
   10478:	8082                	ret
